; Function Attrs: mustprogress nofree norecurse nosync nounwind willreturn memory(read, inaccessiblemem: none) uwtable
define noundef zeroext i1 @_ZNK10open_spiel5maedn10MaednState9AllInGoalEi(ptr noundef nonnull readonly align 8 captures(none) dereferenceable(160) %0, i32 noundef %1) local_unnamed_addr #10 align 2 {
  %3 = getelementptr inbounds nuw i8, ptr %0, i64 28
  %4 = load i32, ptr %3, align 4
  %5 = icmp eq i32 %4, 2
  br i1 %5, label %6, label %_ZNK10open_spiel5maedn10MaednState16PlayerToPositionEi.exit

6:                                                ; preds = %2
  %7 = getelementptr inbounds nuw i8, ptr %0, i64 68
  %8 = load i8, ptr %7, align 4
  %9 = trunc i8 %8 to i1
  %10 = add i32 %1, -1
  %or.cond.i = icmp ult i32 %10, 2
  %or.cond5.i = and i1 %or.cond.i, %9
  %11 = sub nuw nsw i32 3, %1
  %spec.select.i = select i1 %or.cond5.i, i32 %11, i32 %1
  br label %_ZNK10open_spiel5maedn10MaednState16PlayerToPositionEi.exit

_ZNK10open_spiel5maedn10MaednState16PlayerToPositionEi.exit: ; preds = %2, %6
  %12 = phi i32 [ %1, %2 ], [ %spec.select.i, %6 ]
  %13 = shl nsw i32 %12, 2
  %14 = getelementptr inbounds nuw i8, ptr %0, i64 112
  %15 = load ptr, ptr %14, align 8
  %16 = sext i32 %13 to i64
  %17 = getelementptr i32, ptr %15, i64 %16
  %18 = getelementptr i8, ptr %17, i64 160
  %19 = load i32, ptr %18, align 4
  %.not = icmp eq i32 %19, 0
  br i1 %.not, label %30, label %20

20:                                               ; preds = %_ZNK10open_spiel5maedn10MaednState16PlayerToPositionEi.exit
  %21 = getelementptr i8, ptr %17, i64 164
  %22 = load i32, ptr %21, align 4
  %.not6 = icmp eq i32 %22, 0
  br i1 %.not6, label %30, label %23

23:                                               ; preds = %20
  %24 = getelementptr i8, ptr %17, i64 168
  %25 = load i32, ptr %24, align 4
  %.not7 = icmp eq i32 %25, 0
  br i1 %.not7, label %30, label %26

26:                                               ; preds = %23
  %27 = getelementptr i8, ptr %17, i64 172
  %28 = load i32, ptr %27, align 4
  %29 = icmp ne i32 %28, 0
  br label %30

30:                                               ; preds = %26, %23, %20, %_ZNK10open_spiel5maedn10MaednState16PlayerToPositionEi.exit
  %31 = phi i1 [ false, %23 ], [ false, %20 ], [ false, %_ZNK10open_spiel5maedn10MaednState16PlayerToPositionEi.exit ], [ %29, %26 ]
  ret i1 %31
}